target datalayout = "e-m:e-p270:32:32-p271:32:32-p272:64:64-i64:64-i128:128-f80:128-n8:16:32:64-S128"
target triple = "x86_64-pc-linux-gnu"

%struct.ossl_param_st = type { ptr, i32, ptr, i64, i64 }

@.str.9 = private unnamed_addr constant [31 x i8] c"../openssl/test/fake_rsaprov.c\00", align 1
@.str.34 = private unnamed_addr constant [32 x i8] c"params = fake_rsa_key_params(0)\00", align 1

; Function Attrs: nounwind uwtable
define dso_local ptr @fake_rsa_key_params(i32 noundef %0) #0 {
  %2 = alloca ptr, align 8
  %3 = alloca i32, align 4
  %4 = alloca [9 x %struct.ossl_param_st], align 16
  %5 = alloca [3 x %struct.ossl_param_st], align 16
  store i32 %0, ptr %3, align 4, !tbaa !4
  %6 = load i32, ptr %3, align 4, !tbaa !4
  %7 = icmp ne i32 %6, 0
  br i1 %7, label %8, label %11

8:                                                ; preds = %1
  call void @llvm.lifetime.start.p0(i64 360, ptr %4) #6
  call void @llvm.memcpy.p0.p0.i64(ptr align 16 %4, ptr align 16 @__const.fake_rsa_key_params.params, i64 360, i1 false)
  %9 = getelementptr inbounds [9 x %struct.ossl_param_st], ptr %4, i64 0, i64 0
  %10 = call ptr @OSSL_PARAM_dup(ptr noundef %9)
  store ptr %10, ptr %2, align 8
  call void @llvm.lifetime.end.p0(i64 360, ptr %4) #6
  br label %14

11:                                               ; preds = %1
  call void @llvm.lifetime.start.p0(i64 120, ptr %5) #6
  call void @llvm.memcpy.p0.p0.i64(ptr align 16 %5, ptr align 16 @__const.fake_rsa_key_params.params.8, i64 120, i1 false)
  %12 = getelementptr inbounds [3 x %struct.ossl_param_st], ptr %5, i64 0, i64 0
  %13 = call ptr @OSSL_PARAM_dup(ptr noundef %12)
  store ptr %13, ptr %2, align 8
  call void @llvm.lifetime.end.p0(i64 120, ptr %5) #6
  br label %14

14:                                               ; preds = %11, %8
  %15 = load ptr, ptr %2, align 8
  ret ptr %15
}

; Function Attrs: nounwind uwtable
define internal i32 @fake_rsa_keymgmt_export(ptr noundef %0, i32 noundef %1, ptr noundef %2, ptr noundef %3) #0 {
  %5 = alloca i32, align 4
  %6 = alloca ptr, align 8
  %7 = alloca i32, align 4
  %8 = alloca ptr, align 8
  %9 = alloca ptr, align 8
  %10 = alloca ptr, align 8
  %11 = alloca i32, align 4
  %12 = alloca i32, align 4
  store ptr %0, ptr %6, align 8, !tbaa !19
  store i32 %1, ptr %7, align 4, !tbaa !4
  store ptr %2, ptr %8, align 8, !tbaa !19
  store ptr %3, ptr %9, align 8, !tbaa !19
  call void @llvm.lifetime.start.p0(i64 8, ptr %10) #6
  store ptr null, ptr %10, align 8, !tbaa !24
  call void @llvm.lifetime.start.p0(i64 4, ptr %11) #6
  %13 = load i32, ptr %7, align 4, !tbaa !4
  %14 = and i32 %13, 1
  %15 = icmp ne i32 %14, 0
  br i1 %15, label %16, label %17

16:                                               ; preds = %4
  store i32 0, ptr %5, align 4
  store i32 1, ptr %12, align 4
  br label %29

17:                                               ; preds = %4
  %18 = call ptr @fake_rsa_key_params(i32 noundef 0)
  store ptr %18, ptr %10, align 8, !tbaa !24
  %19 = call i32 @test_ptr(ptr noundef @.str.9, i32 noundef 176, ptr noundef @.str.34, ptr noundef %18)
  %20 = icmp ne i32 %19, 0
  br i1 %20, label %22, label %21

21:                                               ; preds = %17
  store i32 0, ptr %5, align 4
  store i32 1, ptr %12, align 4
  br label %29

22:                                               ; preds = %17
  %23 = load ptr, ptr %8, align 8, !tbaa !19
  %24 = load ptr, ptr %10, align 8, !tbaa !24
  %25 = load ptr, ptr %9, align 8, !tbaa !19
  %26 = call i32 %23(ptr noundef %24, ptr noundef %25)
  store i32 %26, ptr %11, align 4, !tbaa !4
  %27 = load ptr, ptr %10, align 8, !tbaa !24
  call void @OSSL_PARAM_free(ptr noundef %27)
  %28 = load i32, ptr %11, align 4, !tbaa !4
  store i32 %28, ptr %5, align 4
  store i32 1, ptr %12, align 4
  br label %29

29:                                               ; preds = %22, %21, %16
  call void @llvm.lifetime.end.p0(i64 4, ptr %11) #6
  call void @llvm.lifetime.end.p0(i64 8, ptr %10) #6
  %30 = load i32, ptr %5, align 4
  ret i32 %30
}