; Function Attrs: nounwind uwtable
define internal i32 @fake_rsa_keymgmt_export(ptr readnone captures(none) %0, i32 noundef %1, ptr noundef readonly captures(none) %2, ptr noundef %3) #1 {
  %5 = alloca [3 x %struct.ossl_param_st], align 16
  %6 = and i32 %1, 1
  %.not = icmp eq i32 %6, 0
  br i1 %.not, label %7, label %12

7:                                                ; preds = %4
  call void @llvm.lifetime.start.p0(i64 120, ptr nonnull %5) #12
  call void @llvm.memcpy.p0.p0.i64(ptr noundef nonnull align 16 dereferenceable(120) %5, ptr noundef nonnull align 16 dereferenceable(120) @__const.fake_rsa_key_params.params.8, i64 120, i1 false)
  %8 = call ptr @OSSL_PARAM_dup(ptr noundef nonnull %5) #12
  call void @llvm.lifetime.end.p0(i64 120, ptr nonnull %5) #12
  %9 = call i32 @test_ptr(ptr noundef nonnull @.str.9, i32 noundef 176, ptr noundef nonnull @.str.34, ptr noundef %8) #12
  %.not6 = icmp eq i32 %9, 0
  br i1 %.not6, label %12, label %10

10:                                               ; preds = %7
  %11 = call i32 %2(ptr noundef %8, ptr noundef %3) #12
  call void @OSSL_PARAM_free(ptr noundef %8) #12
  br label %12

12:                                               ; preds = %7, %4, %10
  %.0 = phi i32 [ %11, %10 ], [ 0, %4 ], [ 0, %7 ]
  ret i32 %.0
}